target datalayout = "e-m:e-p270:32:32-p271:32:32-p272:64:64-i64:64-i128:128-f80:128-n8:16:32:64-S128"
target triple = "x86_64-pc-linux-gnu"

%struct.pmix_proc = type { [256 x i8], i32 }
%struct.prte_plm_globals_t = type { ptr, i32, %struct.timeval, %struct.pmix_data_buffer, i8, i64, %struct.pmix_list_t, i8, ptr }
%struct.timeval = type { i64, i64 }
%struct.pmix_data_buffer = type { ptr, ptr, ptr, i64, i64 }
%struct.pmix_list_t = type { %struct.pmix_object_t, %struct.pmix_list_item_t, i64 }
%struct.pmix_object_t = type { %union.pthread_mutex_t, ptr, i32, %struct.pmix_tma }
%union.pthread_mutex_t = type { %struct.__pthread_mutex_s }
%struct.__pthread_mutex_s = type { i32, i32, i32, i32, i32, i16, i16, %struct.__pthread_internal_list }
%struct.__pthread_internal_list = type { ptr, ptr }
%struct.pmix_tma = type { ptr, ptr, ptr, ptr, ptr, ptr, ptr, ptr }
%struct.pmix_list_item_t = type { %struct.pmix_object_t, ptr, ptr, i32 }
%struct.prte_job_t = type { %struct.pmix_list_item_t, i32, ptr, ptr, [256 x i8], ptr, i32, i32, ptr, ptr, i32, i32, i32, i32, ptr, ptr, ptr, i32, i32, i32, i32, i32, i32, i32, %struct.pmix_proc, i32, i16, %struct.pmix_list_t, %struct.pmix_data_buffer, %struct.pmix_list_t, [256 x i8], i32, ptr, %struct.pmix_cli_result_t }
%struct.pmix_cli_result_t = type { %struct.pmix_object_t, %struct.pmix_list_t, ptr }

@prte_plm_globals = external global %struct.prte_plm_globals_t, align 8
@reuse = internal global i8 0, align 1
@.str.4 = private unnamed_addr constant [6 x i8] c"%s@%u\00", align 1
@.str.5 = private unnamed_addr constant [85 x i8] c"Whoa! What are you doing starting that many jobs concurrently? We are out of jobids!\00", align 1
@.str.6 = private unnamed_addr constant [37 x i8] c"PRTE ERROR: %s in file %s at line %d\00", align 1
@.str.7 = private unnamed_addr constant [22 x i8] c"base/plm_base_jobid.c\00", align 1

; Function Attrs: nounwind uwtable
define i32 @prte_plm_base_create_jobid(ptr noundef %0) #0 {
  %2 = alloca i32, align 4
  %3 = alloca ptr, align 8
  %4 = alloca i32, align 4
  %5 = alloca [256 x i8], align 16
  %6 = alloca ptr, align 8
  %7 = alloca i8, align 1
  %8 = alloca ptr, align 8
  %9 = alloca i32, align 4
  %10 = alloca i32, align 4
  store ptr %0, ptr %3, align 8, !tbaa !28
  call void @llvm.lifetime.start.p0(i64 4, ptr %4) #5
  call void @llvm.lifetime.start.p0(i64 256, ptr %5) #5
  call void @llvm.lifetime.start.p0(i64 8, ptr %6) #5
  call void @llvm.lifetime.start.p0(i64 1, ptr %7) #5
  call void @llvm.lifetime.start.p0(i64 8, ptr %8) #5
  call void @llvm.lifetime.start.p0(i64 4, ptr %9) #5
  %11 = load ptr, ptr %3, align 8, !tbaa !28
  %12 = getelementptr inbounds nuw %struct.prte_job_t, ptr %11, i32 0, i32 26
  %13 = load i16, ptr %12, align 4, !tbaa !29
  %14 = zext i16 %13 to i32
  %15 = and i32 %14, 512
  %16 = icmp ne i32 %15, 0
  br i1 %16, label %17, label %18

17:                                               ; preds = %1
  store i32 0, ptr %2, align 4
  store i32 1, ptr %10, align 4
  br label %76

18:                                               ; preds = %1
  %19 = load i8, ptr @reuse, align 1, !tbaa !35, !range !36, !noundef !37
  %20 = trunc i8 %19 to i1
  br i1 %20, label %21, label %45

21:                                               ; preds = %18
  store i8 0, ptr %7, align 1, !tbaa !35
  store i32 1, ptr %4, align 4, !tbaa !38
  br label %22

22:                                               ; preds = %37, %21
  %23 = load i32, ptr %4, align 4, !tbaa !38
  %24 = icmp ult i32 %23, -1
  br i1 %24, label %25, label %40

25:                                               ; preds = %22
  store ptr null, ptr %6, align 8, !tbaa !28
  %26 = getelementptr inbounds [256 x i8], ptr %5, i64 0, i64 0
  %27 = load ptr, ptr @prte_plm_globals, align 8, !tbaa !8
  %28 = load i32, ptr %4, align 4, !tbaa !38
  %29 = call i32 (ptr, i64, ptr, ...) @snprintf(ptr noundef %26, i64 noundef 254, ptr noundef @.str.4, ptr noundef %27, i32 noundef %28) #5
  %30 = getelementptr inbounds [256 x i8], ptr %5, i64 0, i64 0
  %31 = call ptr @prte_get_job_data_object(ptr noundef %30)
  store ptr %31, ptr %6, align 8, !tbaa !28
  %32 = load ptr, ptr %6, align 8, !tbaa !28
  %33 = icmp eq ptr null, %32
  br i1 %33, label %34, label %36

34:                                               ; preds = %25
  store i8 1, ptr %7, align 1, !tbaa !35
  %35 = load i32, ptr %4, align 4, !tbaa !38
  store i32 %35, ptr getelementptr inbounds nuw (%struct.prte_plm_globals_t, ptr @prte_plm_globals, i32 0, i32 1), align 8, !tbaa !39
  br label %40

36:                                               ; preds = %25
  br label %37

37:                                               ; preds = %36
  %38 = load i32, ptr %4, align 4, !tbaa !38
  %39 = add i32 %38, 1
  store i32 %39, ptr %4, align 4, !tbaa !38
  br label %22, !llvm.loop !40

40:                                               ; preds = %34, %22
  %41 = load i8, ptr %7, align 1, !tbaa !35, !range !36, !noundef !37
  %42 = trunc i8 %41 to i1
  br i1 %42, label %44, label %43

43:                                               ; preds = %40
  call void (i32, ptr, ...) @pmix_output(i32 noundef 0, ptr noundef @.str.5)
  store i32 -2, ptr %2, align 4
  store i32 1, ptr %10, align 4
  br label %76

44:                                               ; preds = %40
  br label %45

45:                                               ; preds = %44, %18
  %46 = load ptr, ptr @prte_plm_globals, align 8, !tbaa !8
  %47 = load i32, ptr getelementptr inbounds nuw (%struct.prte_plm_globals_t, ptr @prte_plm_globals, i32 0, i32 1), align 8, !tbaa !39
  %48 = call i32 (ptr, ptr, ...) @pmix_asprintf(ptr noundef %8, ptr noundef @.str.4, ptr noundef %46, i32 noundef %47)
  %49 = load ptr, ptr %3, align 8, !tbaa !28
  %50 = getelementptr inbounds nuw %struct.prte_job_t, ptr %49, i32 0, i32 4
  %51 = getelementptr inbounds [256 x i8], ptr %50, i64 0, i64 0
  %52 = load ptr, ptr %8, align 8, !tbaa !3
  call void @PMIx_Load_nspace(ptr noundef %51, ptr noundef %52)
  %53 = load ptr, ptr %8, align 8, !tbaa !3
  call void @free(ptr noundef %53) #5
  %54 = load ptr, ptr %3, align 8, !tbaa !28
  %55 = call i32 @prte_set_job_data_object(ptr noundef %54)
  store i32 %55, ptr %9, align 4, !tbaa !38
  %56 = load i32, ptr %9, align 4, !tbaa !38
  %57 = icmp ne i32 0, %56
  br i1 %57, label %58, label %69

58:                                               ; preds = %45
  br label %59

59:                                               ; preds = %58
  %60 = load i32, ptr %9, align 4, !tbaa !38
  %61 = icmp ne i32 -43, %60
  br i1 %61, label %62, label %65

62:                                               ; preds = %59
  %63 = load i32, ptr %9, align 4, !tbaa !38
  %64 = call ptr @prte_strerror(i32 noundef %63)
  call void (i32, ptr, ...) @pmix_output(i32 noundef 0, ptr noundef @.str.6, ptr noundef %64, ptr noundef @.str.7, i32 noundef 125)
  br label %65

65:                                               ; preds = %62, %59
  br label %66

66:                                               ; preds = %65
  br label %67

67:                                               ; preds = %66
  %68 = load i32, ptr %9, align 4, !tbaa !38
  store i32 %68, ptr %2, align 4
  store i32 1, ptr %10, align 4
  br label %76

69:                                               ; preds = %45
  %70 = load i32, ptr getelementptr inbounds nuw (%struct.prte_plm_globals_t, ptr @prte_plm_globals, i32 0, i32 1), align 8, !tbaa !39
  %71 = add i32 %70, 1
  store i32 %71, ptr getelementptr inbounds nuw (%struct.prte_plm_globals_t, ptr @prte_plm_globals, i32 0, i32 1), align 8, !tbaa !39
  %72 = load i32, ptr getelementptr inbounds nuw (%struct.prte_plm_globals_t, ptr @prte_plm_globals, i32 0, i32 1), align 8, !tbaa !39
  %73 = icmp eq i32 -1, %72
  br i1 %73, label %74, label %75

74:                                               ; preds = %69
  store i8 1, ptr @reuse, align 1, !tbaa !35
  store i32 1, ptr getelementptr inbounds nuw (%struct.prte_plm_globals_t, ptr @prte_plm_globals, i32 0, i32 1), align 8, !tbaa !39
  br label %75

75:                                               ; preds = %74, %69
  store i32 0, ptr %2, align 4
  store i32 1, ptr %10, align 4
  br label %76

76:                                               ; preds = %75, %67, %43, %17
  call void @llvm.lifetime.end.p0(i64 4, ptr %9) #5
  call void @llvm.lifetime.end.p0(i64 8, ptr %8) #5
  call void @llvm.lifetime.end.p0(i64 1, ptr %7) #5
  call void @llvm.lifetime.end.p0(i64 8, ptr %6) #5
  call void @llvm.lifetime.end.p0(i64 256, ptr %5) #5
  call void @llvm.lifetime.end.p0(i64 4, ptr %4) #5
  %77 = load i32, ptr %2, align 4
  ret i32 %77
}