; Function Attrs: nounwind uwtable
define noundef i32 @prte_plm_base_create_jobid(ptr noundef %0) local_unnamed_addr #0 {
  %2 = alloca [256 x i8], align 16
  %3 = alloca ptr, align 8
  call void @llvm.lifetime.start.p0(i64 256, ptr nonnull %2) #9
  call void @llvm.lifetime.start.p0(i64 8, ptr nonnull %3) #9
  %4 = getelementptr inbounds nuw i8, ptr %0, i64 788
  %5 = load i16, ptr %4, align 4, !tbaa !28
  %6 = and i16 %5, 512
  %.not = icmp eq i16 %6, 0
  br i1 %.not, label %7, label %30

7:                                                ; preds = %1
  %.b16 = load i1, ptr @reuse, align 1
  br i1 %.b16, label %.preheader, label %._crit_edge

._crit_edge:                                      ; preds = %7
  %.pre = load i32, ptr getelementptr inbounds nuw (i8, ptr @prte_plm_globals, i64 8), align 8, !tbaa !34
  br label %15

.preheader:                                       ; preds = %7, %13
  %.01421 = phi i32 [ %14, %13 ], [ 1, %7 ]
  %8 = load ptr, ptr @prte_plm_globals, align 8, !tbaa !8
  %9 = call i32 (ptr, i64, ptr, ...) @snprintf(ptr noundef nonnull dereferenceable(1) %2, i64 noundef 254, ptr noundef nonnull @.str.4, ptr noundef %8, i32 noundef %.01421) #9
  %10 = call ptr @prte_get_job_data_object(ptr noundef nonnull %2) #9
  %11 = icmp eq ptr %10, null
  br i1 %11, label %12, label %13

12:                                               ; preds = %.preheader
  store i32 %.01421, ptr getelementptr inbounds nuw (i8, ptr @prte_plm_globals, i64 8), align 8, !tbaa !34
  br label %15

13:                                               ; preds = %.preheader
  %14 = add nuw i32 %.01421, 1
  %.not17.not = icmp eq i32 %14, -1
  br i1 %.not17.not, label %.critedge, label %.preheader, !llvm.loop !35

.critedge:                                        ; preds = %13
  call void (i32, ptr, ...) @pmix_output(i32 noundef 0, ptr noundef nonnull @.str.5) #9
  br label %30

15:                                               ; preds = %._crit_edge, %12
  %16 = phi i32 [ %.pre, %._crit_edge ], [ %.01421, %12 ]
  %17 = load ptr, ptr @prte_plm_globals, align 8, !tbaa !8
  %18 = call i32 (ptr, ptr, ...) @pmix_asprintf(ptr noundef nonnull %3, ptr noundef nonnull @.str.4, ptr noundef %17, i32 noundef %16) #9
  %19 = getelementptr inbounds nuw i8, ptr %0, i64 168
  %20 = load ptr, ptr %3, align 8, !tbaa !3
  call void @PMIx_Load_nspace(ptr noundef nonnull %19, ptr noundef %20) #9
  %21 = load ptr, ptr %3, align 8, !tbaa !3
  call void @free(ptr noundef %21) #9
  %22 = call i32 @prte_set_job_data_object(ptr noundef %0) #9
  switch i32 %22, label %23 [
    i32 0, label %25
    i32 -43, label %30
  ]

23:                                               ; preds = %15
  %24 = call ptr @prte_strerror(i32 noundef %22) #9
  call void (i32, ptr, ...) @pmix_output(i32 noundef 0, ptr noundef nonnull @.str.6, ptr noundef %24, ptr noundef nonnull @.str.7, i32 noundef 125) #9
  br label %30

25:                                               ; preds = %15
  %26 = load i32, ptr getelementptr inbounds nuw (i8, ptr @prte_plm_globals, i64 8), align 8, !tbaa !34
  %27 = add i32 %26, 1
  store i32 %27, ptr getelementptr inbounds nuw (i8, ptr @prte_plm_globals, i64 8), align 8, !tbaa !34
  %28 = icmp eq i32 %27, -1
  br i1 %28, label %29, label %30

29:                                               ; preds = %25
  store i1 true, ptr @reuse, align 1
  store i32 1, ptr getelementptr inbounds nuw (i8, ptr @prte_plm_globals, i64 8), align 8, !tbaa !34
  br label %30

30:                                               ; preds = %25, %29, %23, %15, %1, %.critedge
  %.0 = phi i32 [ -2, %.critedge ], [ 0, %1 ], [ %22, %15 ], [ %22, %23 ], [ 0, %29 ], [ 0, %25 ]
  call void @llvm.lifetime.end.p0(i64 8, ptr nonnull %3) #9
  call void @llvm.lifetime.end.p0(i64 256, ptr nonnull %2) #9
  ret i32 %.0
}